target datalayout = "e-m:e-p270:32:32-p271:32:32-p272:64:64-i64:64-i128:128-f80:128-n8:16:32:64-S128"
target triple = "x86_64-pc-linux-gnu"

%struct.SDL_AtomicInt = type { i32 }
%struct.SDL_EventWatchList = type { ptr, %struct.SDL_EventWatcher, ptr, i32, i8, i8 }
%struct.SDL_EventWatcher = type { ptr, ptr, i8 }
%struct.SDL_TemporaryMemory = type { ptr, ptr, ptr }
%struct.SDL_TemporaryMemoryState = type { ptr, ptr }
%struct.SDL_MouseWheelEvent = type { i32, i32, i64, i32, i32, float, float, i32, float, float, i32, i32 }
%struct.anon = type { ptr, i8, %struct.SDL_AtomicInt, i32, ptr, ptr, ptr }
%struct.SDL_EventEntry = type { %union.SDL_Event, ptr, ptr, ptr }
%union.SDL_Event = type { %struct.SDL_MouseWheelEvent, [72 x i8] }

@.str.162 = private unnamed_addr constant [27 x i8] c"SDL_EVENT_QUEUE_STATISTICS\00", align 1
@.str.163 = private unnamed_addr constant [46 x i8] c"SDL EVENT QUEUE: Maximum events in-flight: %d\00", align 1
@SDL_sentinel_pending = internal global %struct.SDL_AtomicInt zeroinitializer, align 4
@SDL_disabled_events = internal global [256 x ptr] zeroinitializer, align 16
@SDL_event_watchers = internal global %struct.SDL_EventWatchList zeroinitializer, align 8
@SDL_temporary_memory = internal global %struct.SDL_AtomicInt zeroinitializer, align 4
@SDL_EventQ = internal global { ptr, i8, [3 x i8], %struct.SDL_AtomicInt, i32, [4 x i8], ptr, ptr, ptr } zeroinitializer, align 8

; Function Attrs: nounwind uwtable
define internal void @SDL_LinkTemporaryMemoryEntry(ptr noundef %0, ptr noundef %1) #0 {
  %3 = alloca ptr, align 8
  %4 = alloca ptr, align 8
  store ptr %0, ptr %3, align 8
  store ptr %1, ptr %4, align 8
  %5 = load ptr, ptr %3, align 8
  %6 = getelementptr inbounds nuw %struct.SDL_TemporaryMemoryState, ptr %5, i32 0, i32 1
  %7 = load ptr, ptr %6, align 8
  %8 = load ptr, ptr %4, align 8
  %9 = getelementptr inbounds nuw %struct.SDL_TemporaryMemory, ptr %8, i32 0, i32 1
  store ptr %7, ptr %9, align 8
  %10 = load ptr, ptr %4, align 8
  %11 = getelementptr inbounds nuw %struct.SDL_TemporaryMemory, ptr %10, i32 0, i32 2
  store ptr null, ptr %11, align 8
  %12 = load ptr, ptr %3, align 8
  %13 = getelementptr inbounds nuw %struct.SDL_TemporaryMemoryState, ptr %12, i32 0, i32 1
  %14 = load ptr, ptr %13, align 8
  %15 = icmp ne ptr %14, null
  br i1 %15, label %16, label %22

16:                                               ; preds = %2
  %17 = load ptr, ptr %4, align 8
  %18 = load ptr, ptr %3, align 8
  %19 = getelementptr inbounds nuw %struct.SDL_TemporaryMemoryState, ptr %18, i32 0, i32 1
  %20 = load ptr, ptr %19, align 8
  %21 = getelementptr inbounds nuw %struct.SDL_TemporaryMemory, ptr %20, i32 0, i32 2
  store ptr %17, ptr %21, align 8
  br label %26

22:                                               ; preds = %2
  %23 = load ptr, ptr %4, align 8
  %24 = load ptr, ptr %3, align 8
  %25 = getelementptr inbounds nuw %struct.SDL_TemporaryMemoryState, ptr %24, i32 0, i32 0
  store ptr %23, ptr %25, align 8
  br label %26

26:                                               ; preds = %22, %16
  %27 = load ptr, ptr %4, align 8
  %28 = load ptr, ptr %3, align 8
  %29 = getelementptr inbounds nuw %struct.SDL_TemporaryMemoryState, ptr %28, i32 0, i32 1
  store ptr %27, ptr %29, align 8
  ret void
}

; Function Attrs: nounwind uwtable
define internal ptr @SDL_GetTemporaryMemoryState(i1 noundef zeroext %0) #0 {
  %2 = alloca ptr, align 8
  %3 = alloca i8, align 1
  %4 = alloca ptr, align 8
  %5 = alloca i32, align 4
  %6 = zext i1 %0 to i8
  store i8 %6, ptr %3, align 1
  call void @llvm.lifetime.start.p0(i64 8, ptr %4) #5
  %7 = call ptr @SDL_GetTLS_REAL(ptr noundef @SDL_temporary_memory)
  store ptr %7, ptr %4, align 8
  %8 = load ptr, ptr %4, align 8
  %9 = icmp ne ptr %8, null
  br i1 %9, label %25, label %10

10:                                               ; preds = %1
  %11 = load i8, ptr %3, align 1, !range !3, !noundef !4
  %12 = trunc i8 %11 to i1
  br i1 %12, label %14, label %13

13:                                               ; preds = %10
  store ptr null, ptr %2, align 8
  store i32 1, ptr %5, align 4
  br label %27

14:                                               ; preds = %10
  %15 = call noalias ptr @SDL_calloc_REAL(i64 noundef 1, i64 noundef 16) #6
  store ptr %15, ptr %4, align 8
  %16 = load ptr, ptr %4, align 8
  %17 = icmp ne ptr %16, null
  br i1 %17, label %19, label %18

18:                                               ; preds = %14
  store ptr null, ptr %2, align 8
  store i32 1, ptr %5, align 4
  br label %27

19:                                               ; preds = %14
  %20 = load ptr, ptr %4, align 8
  %21 = call zeroext i1 @SDL_SetTLS_REAL(ptr noundef @SDL_temporary_memory, ptr noundef %20, ptr noundef @SDL_CleanupTemporaryMemory)
  br i1 %21, label %24, label %22

22:                                               ; preds = %19
  %23 = load ptr, ptr %4, align 8
  call void @SDL_free_REAL(ptr noundef %23)
  store ptr null, ptr %2, align 8
  store i32 1, ptr %5, align 4
  br label %27

24:                                               ; preds = %19
  br label %25

25:                                               ; preds = %24, %1
  %26 = load ptr, ptr %4, align 8
  store ptr %26, ptr %2, align 8
  store i32 1, ptr %5, align 4
  br label %27

27:                                               ; preds = %25, %22, %18, %13
  call void @llvm.lifetime.end.p0(i64 8, ptr %4) #5
  %28 = load ptr, ptr %2, align 8
  ret ptr %28
}

; Function Attrs: nounwind uwtable
define internal void @SDL_TransferTemporaryMemoryFromEvent(ptr noundef %0) #0 {
  %2 = alloca ptr, align 8
  %3 = alloca ptr, align 8
  %4 = alloca ptr, align 8
  %5 = alloca ptr, align 8
  %6 = alloca i32, align 4
  store ptr %0, ptr %2, align 8
  call void @llvm.lifetime.start.p0(i64 8, ptr %3) #5
  call void @llvm.lifetime.start.p0(i64 8, ptr %4) #5
  call void @llvm.lifetime.start.p0(i64 8, ptr %5) #5
  %7 = load ptr, ptr %2, align 8
  %8 = getelementptr inbounds nuw %struct.SDL_EventEntry, ptr %7, i32 0, i32 1
  %9 = load ptr, ptr %8, align 8
  %10 = icmp ne ptr %9, null
  br i1 %10, label %12, label %11

11:                                               ; preds = %1
  store i32 1, ptr %6, align 4
  br label %35

12:                                               ; preds = %1
  %13 = call ptr @SDL_GetTemporaryMemoryState(i1 noundef zeroext true)
  store ptr %13, ptr %3, align 8
  %14 = load ptr, ptr %3, align 8
  %15 = icmp ne ptr %14, null
  br i1 %15, label %17, label %16

16:                                               ; preds = %12
  store i32 1, ptr %6, align 4
  br label %35

17:                                               ; preds = %12
  %18 = load ptr, ptr %2, align 8
  %19 = getelementptr inbounds nuw %struct.SDL_EventEntry, ptr %18, i32 0, i32 1
  %20 = load ptr, ptr %19, align 8
  store ptr %20, ptr %4, align 8
  br label %21

21:                                               ; preds = %30, %17
  %22 = load ptr, ptr %4, align 8
  %23 = icmp ne ptr %22, null
  br i1 %23, label %24, label %32

24:                                               ; preds = %21
  %25 = load ptr, ptr %4, align 8
  %26 = getelementptr inbounds nuw %struct.SDL_TemporaryMemory, ptr %25, i32 0, i32 2
  %27 = load ptr, ptr %26, align 8
  store ptr %27, ptr %5, align 8
  %28 = load ptr, ptr %3, align 8
  %29 = load ptr, ptr %4, align 8
  call void @SDL_LinkTemporaryMemoryEntry(ptr noundef %28, ptr noundef %29)
  br label %30

30:                                               ; preds = %24
  %31 = load ptr, ptr %5, align 8
  store ptr %31, ptr %4, align 8
  br label %21, !llvm.loop !11

32:                                               ; preds = %21
  %33 = load ptr, ptr %2, align 8
  %34 = getelementptr inbounds nuw %struct.SDL_EventEntry, ptr %33, i32 0, i32 1
  store ptr null, ptr %34, align 8
  store i32 0, ptr %6, align 4
  br label %35

35:                                               ; preds = %32, %16, %11
  call void @llvm.lifetime.end.p0(i64 8, ptr %5) #5
  call void @llvm.lifetime.end.p0(i64 8, ptr %4) #5
  call void @llvm.lifetime.end.p0(i64 8, ptr %3) #5
  %36 = load i32, ptr %6, align 4
  switch i32 %36, label %38 [
    i32 0, label %37
    i32 1, label %37
  ]

37:                                               ; preds = %35, %35
  ret void

38:                                               ; preds = %35
  unreachable
}

; Function Attrs: nounwind uwtable
define hidden void @SDL_StopEventLoop() #0 {
  %1 = alloca ptr, align 8
  %2 = alloca i32, align 4
  %3 = alloca ptr, align 8
  %4 = alloca ptr, align 8
  %5 = alloca ptr, align 8
  %6 = alloca ptr, align 8
  call void @llvm.lifetime.start.p0(i64 8, ptr %1) #5
  %7 = call ptr @SDL_GetHint_REAL(ptr noundef @.str.162)
  store ptr %7, ptr %1, align 8
  call void @llvm.lifetime.start.p0(i64 4, ptr %2) #5
  call void @llvm.lifetime.start.p0(i64 8, ptr %3) #5
  %8 = load ptr, ptr @SDL_EventQ, align 8
  call void @SDL_LockMutex_REAL(ptr noundef %8)
  store i8 0, ptr getelementptr inbounds nuw (%struct.anon, ptr @SDL_EventQ, i32 0, i32 1), align 8
  %9 = load ptr, ptr %1, align 8
  %10 = icmp ne ptr %9, null
  br i1 %10, label %11, label %17

11:                                               ; preds = %0
  %12 = load ptr, ptr %1, align 8
  %13 = call i32 @SDL_atoi_REAL(ptr noundef %12)
  %14 = icmp ne i32 %13, 0
  br i1 %14, label %15, label %17

15:                                               ; preds = %11
  %16 = load i32, ptr getelementptr inbounds nuw (%struct.anon, ptr @SDL_EventQ, i32 0, i32 3), align 8
  call void (ptr, ...) @SDL_Log_REAL(ptr noundef @.str.163, i32 noundef %16)
  br label %17

17:                                               ; preds = %15, %11, %0
  %18 = load ptr, ptr getelementptr inbounds nuw (%struct.anon, ptr @SDL_EventQ, i32 0, i32 4), align 8
  store ptr %18, ptr %3, align 8
  br label %19

19:                                               ; preds = %22, %17
  %20 = load ptr, ptr %3, align 8
  %21 = icmp ne ptr %20, null
  br i1 %21, label %22, label %29

22:                                               ; preds = %19
  call void @llvm.lifetime.start.p0(i64 8, ptr %4) #5
  %23 = load ptr, ptr %3, align 8
  %24 = getelementptr inbounds nuw %struct.SDL_EventEntry, ptr %23, i32 0, i32 3
  %25 = load ptr, ptr %24, align 8
  store ptr %25, ptr %4, align 8
  %26 = load ptr, ptr %3, align 8
  call void @SDL_TransferTemporaryMemoryFromEvent(ptr noundef %26)
  %27 = load ptr, ptr %3, align 8
  call void @SDL_free_REAL(ptr noundef %27)
  %28 = load ptr, ptr %4, align 8
  store ptr %28, ptr %3, align 8
  call void @llvm.lifetime.end.p0(i64 8, ptr %4) #5
  br label %19, !llvm.loop !8

29:                                               ; preds = %19
  %30 = load ptr, ptr getelementptr inbounds nuw (%struct.anon, ptr @SDL_EventQ, i32 0, i32 6), align 8
  store ptr %30, ptr %3, align 8
  br label %31

31:                                               ; preds = %34, %29
  %32 = load ptr, ptr %3, align 8
  %33 = icmp ne ptr %32, null
  br i1 %33, label %34, label %40

34:                                               ; preds = %31
  call void @llvm.lifetime.start.p0(i64 8, ptr %5) #5
  %35 = load ptr, ptr %3, align 8
  %36 = getelementptr inbounds nuw %struct.SDL_EventEntry, ptr %35, i32 0, i32 3
  %37 = load ptr, ptr %36, align 8
  store ptr %37, ptr %5, align 8
  %38 = load ptr, ptr %3, align 8
  call void @SDL_free_REAL(ptr noundef %38)
  %39 = load ptr, ptr %5, align 8
  store ptr %39, ptr %3, align 8
  call void @llvm.lifetime.end.p0(i64 8, ptr %5) #5
  br label %31, !llvm.loop !9

40:                                               ; preds = %31
  %41 = call i32 @SDL_SetAtomicInt_REAL(ptr noundef getelementptr inbounds nuw (%struct.anon, ptr @SDL_EventQ, i32 0, i32 2), i32 noundef 0)
  store i32 0, ptr getelementptr inbounds nuw (%struct.anon, ptr @SDL_EventQ, i32 0, i32 3), align 8
  store ptr null, ptr getelementptr inbounds nuw (%struct.anon, ptr @SDL_EventQ, i32 0, i32 4), align 8
  store ptr null, ptr getelementptr inbounds nuw (%struct.anon, ptr @SDL_EventQ, i32 0, i32 5), align 8
  store ptr null, ptr getelementptr inbounds nuw (%struct.anon, ptr @SDL_EventQ, i32 0, i32 6), align 8
  %42 = call i32 @SDL_SetAtomicInt_REAL(ptr noundef @SDL_sentinel_pending, i32 noundef 0)
  store i32 0, ptr %2, align 4
  br label %43

43:                                               ; preds = %55, %40
  %44 = load i32, ptr %2, align 4
  %45 = sext i32 %44 to i64
  %46 = icmp ult i64 %45, 256
  br i1 %46, label %47, label %58

47:                                               ; preds = %43
  %48 = load i32, ptr %2, align 4
  %49 = sext i32 %48 to i64
  %50 = getelementptr inbounds [256 x ptr], ptr @SDL_disabled_events, i64 0, i64 %49
  %51 = load ptr, ptr %50, align 8
  call void @SDL_free_REAL(ptr noundef %51)
  %52 = load i32, ptr %2, align 4
  %53 = sext i32 %52 to i64
  %54 = getelementptr inbounds [256 x ptr], ptr @SDL_disabled_events, i64 0, i64 %53
  store ptr null, ptr %54, align 8
  br label %55

55:                                               ; preds = %47
  %56 = load i32, ptr %2, align 4
  %57 = add nsw i32 %56, 1
  store i32 %57, ptr %2, align 4
  br label %43, !llvm.loop !10

58:                                               ; preds = %43
  call void @SDL_QuitEventWatchList(ptr noundef @SDL_event_watchers)
  call void @SDL_QuitWindowEventWatch()
  call void @llvm.lifetime.start.p0(i64 8, ptr %6) #5
  store ptr null, ptr %6, align 8
  %59 = load ptr, ptr @SDL_EventQ, align 8
  %60 = icmp ne ptr %59, null
  br i1 %60, label %61, label %63

61:                                               ; preds = %58
  %62 = load ptr, ptr @SDL_EventQ, align 8
  store ptr %62, ptr %6, align 8
  store ptr null, ptr @SDL_EventQ, align 8
  br label %63

63:                                               ; preds = %61, %58
  %64 = load ptr, ptr %6, align 8
  call void @SDL_UnlockMutex_REAL(ptr noundef %64)
  %65 = load ptr, ptr %6, align 8
  %66 = icmp ne ptr %65, null
  br i1 %66, label %67, label %69

67:                                               ; preds = %63
  %68 = load ptr, ptr %6, align 8
  call void @SDL_DestroyMutex_REAL(ptr noundef %68)
  br label %69

69:                                               ; preds = %67, %63
  call void @llvm.lifetime.end.p0(i64 8, ptr %6) #5
  call void @llvm.lifetime.end.p0(i64 8, ptr %3) #5
  call void @llvm.lifetime.end.p0(i64 4, ptr %2) #5
  call void @llvm.lifetime.end.p0(i64 8, ptr %1) #5
  ret void
}