; Function Attrs: nounwind uwtable
define hidden void @SDL_StopEventLoop() local_unnamed_addr #0 {
  %1 = tail call ptr @SDL_GetHint_REAL(ptr noundef nonnull @.str.162) #8
  %2 = load ptr, ptr @SDL_EventQ, align 8
  tail call void @SDL_LockMutex_REAL(ptr noundef %2) #8
  store i8 0, ptr getelementptr inbounds nuw (i8, ptr @SDL_EventQ, i64 8), align 8
  %.not = icmp eq ptr %1, null
  br i1 %.not, label %7, label %3

3:                                                ; preds = %0
  %4 = tail call i32 @SDL_atoi_REAL(ptr noundef nonnull %1) #8
  %.not22 = icmp eq i32 %4, 0
  br i1 %.not22, label %7, label %5

5:                                                ; preds = %3
  %6 = load i32, ptr getelementptr inbounds nuw (i8, ptr @SDL_EventQ, i64 16), align 8
  tail call void (ptr, ...) @SDL_Log_REAL(ptr noundef nonnull @.str.163, i32 noundef %6) #8
  br label %7

7:                                                ; preds = %5, %3, %0
  %8 = load ptr, ptr getelementptr inbounds nuw (i8, ptr @SDL_EventQ, i64 24), align 8
  %.not2329 = icmp eq ptr %8, null
  br i1 %.not2329, label %._crit_edge, label %.lr.ph

.lr.ph:                                           ; preds = %7, %SDL_TransferTemporaryMemoryFromEvent.exit
  %.01830 = phi ptr [ %10, %SDL_TransferTemporaryMemoryFromEvent.exit ], [ %8, %7 ]
  %9 = getelementptr inbounds nuw i8, ptr %.01830, i64 144
  %10 = load ptr, ptr %9, align 8
  %11 = getelementptr inbounds nuw i8, ptr %.01830, i64 128
  %12 = load ptr, ptr %11, align 8
  %.not.i = icmp eq ptr %12, null
  br i1 %.not.i, label %SDL_TransferTemporaryMemoryFromEvent.exit, label %13

13:                                               ; preds = %.lr.ph
  %14 = tail call ptr @SDL_GetTLS_REAL(ptr noundef nonnull @SDL_temporary_memory) #8
  %.not.i.i = icmp eq ptr %14, null
  br i1 %.not.i.i, label %15, label %SDL_GetTemporaryMemoryState.exit.i

15:                                               ; preds = %13
  %16 = tail call noalias dereferenceable_or_null(16) ptr @SDL_calloc_REAL(i64 noundef 1, i64 noundef 16) #9
  %.not9.i.i = icmp eq ptr %16, null
  br i1 %.not9.i.i, label %SDL_TransferTemporaryMemoryFromEvent.exit, label %17

17:                                               ; preds = %15
  %18 = tail call zeroext i1 @SDL_SetTLS_REAL(ptr noundef nonnull @SDL_temporary_memory, ptr noundef nonnull %16, ptr noundef nonnull @SDL_CleanupTemporaryMemory) #8
  br i1 %18, label %SDL_GetTemporaryMemoryState.exit.i, label %19

19:                                               ; preds = %17
  tail call void @SDL_free_REAL(ptr noundef nonnull %16) #8
  br label %SDL_TransferTemporaryMemoryFromEvent.exit

SDL_GetTemporaryMemoryState.exit.i:               ; preds = %17, %13
  %.06.i.i = phi ptr [ %14, %13 ], [ %16, %17 ]
  %20 = load ptr, ptr %11, align 8
  %.not1115.i = icmp eq ptr %20, null
  br i1 %.not1115.i, label %._crit_edge.i, label %.lr.ph.i

.lr.ph.i:                                         ; preds = %SDL_GetTemporaryMemoryState.exit.i
  %21 = getelementptr inbounds nuw i8, ptr %.06.i.i, i64 8
  %.pre.i = load ptr, ptr %21, align 8
  br label %22

22:                                               ; preds = %SDL_LinkTemporaryMemoryEntry.exit.i, %.lr.ph.i
  %23 = phi ptr [ %.pre.i, %.lr.ph.i ], [ %.016.i, %SDL_LinkTemporaryMemoryEntry.exit.i ]
  %.016.i = phi ptr [ %20, %.lr.ph.i ], [ %25, %SDL_LinkTemporaryMemoryEntry.exit.i ]
  %24 = getelementptr inbounds nuw i8, ptr %.016.i, i64 16
  %25 = load ptr, ptr %24, align 8
  %26 = getelementptr inbounds nuw i8, ptr %.016.i, i64 8
  store ptr %23, ptr %26, align 8
  store ptr null, ptr %24, align 8
  %27 = load ptr, ptr %21, align 8
  %.not.i12.i = icmp eq ptr %27, null
  br i1 %.not.i12.i, label %30, label %28

28:                                               ; preds = %22
  %29 = getelementptr inbounds nuw i8, ptr %27, i64 16
  store ptr %.016.i, ptr %29, align 8
  br label %SDL_LinkTemporaryMemoryEntry.exit.i

30:                                               ; preds = %22
  store ptr %.016.i, ptr %.06.i.i, align 8
  br label %SDL_LinkTemporaryMemoryEntry.exit.i

SDL_LinkTemporaryMemoryEntry.exit.i:              ; preds = %30, %28
  store ptr %.016.i, ptr %21, align 8
  %.not11.i = icmp eq ptr %25, null
  br i1 %.not11.i, label %._crit_edge.i, label %22, !llvm.loop !8

._crit_edge.i:                                    ; preds = %SDL_LinkTemporaryMemoryEntry.exit.i, %SDL_GetTemporaryMemoryState.exit.i
  store ptr null, ptr %11, align 8
  br label %SDL_TransferTemporaryMemoryFromEvent.exit

SDL_TransferTemporaryMemoryFromEvent.exit:        ; preds = %.lr.ph, %15, %19, %._crit_edge.i
  tail call void @SDL_free_REAL(ptr noundef nonnull %.01830) #8
  %.not23 = icmp eq ptr %10, null
  br i1 %.not23, label %._crit_edge, label %.lr.ph, !llvm.loop !9

._crit_edge:                                      ; preds = %SDL_TransferTemporaryMemoryFromEvent.exit, %7
  %31 = load ptr, ptr getelementptr inbounds nuw (i8, ptr @SDL_EventQ, i64 40), align 8
  %.not2431 = icmp eq ptr %31, null
  br i1 %.not2431, label %._crit_edge35, label %.lr.ph34

.lr.ph34:                                         ; preds = %._crit_edge, %.lr.ph34
  %.132 = phi ptr [ %33, %.lr.ph34 ], [ %31, %._crit_edge ]
  %32 = getelementptr inbounds nuw i8, ptr %.132, i64 144
  %33 = load ptr, ptr %32, align 8
  tail call void @SDL_free_REAL(ptr noundef nonnull %.132) #8
  %.not24 = icmp eq ptr %33, null
  br i1 %.not24, label %._crit_edge35, label %.lr.ph34, !llvm.loop !10

._crit_edge35:                                    ; preds = %.lr.ph34, %._crit_edge
  %34 = tail call i32 @SDL_SetAtomicInt_REAL(ptr noundef nonnull getelementptr inbounds nuw (i8, ptr @SDL_EventQ, i64 12), i32 noundef 0) #8
  store i32 0, ptr getelementptr inbounds nuw (i8, ptr @SDL_EventQ, i64 16), align 8
  tail call void @llvm.memset.p0.i64(ptr noundef nonnull align 8 dereferenceable(24) getelementptr inbounds nuw (i8, ptr @SDL_EventQ, i64 24), i8 0, i64 24, i1 false)
  %35 = tail call i32 @SDL_SetAtomicInt_REAL(ptr noundef nonnull @SDL_sentinel_pending, i32 noundef 0) #8
  br label %36

36:                                               ; preds = %._crit_edge35, %36
  %indvars.iv = phi i64 [ 0, %._crit_edge35 ], [ %indvars.iv.next, %36 ]
  %37 = getelementptr inbounds nuw [256 x ptr], ptr @SDL_disabled_events, i64 0, i64 %indvars.iv
  %38 = load ptr, ptr %37, align 8
  tail call void @SDL_free_REAL(ptr noundef %38) #8
  store ptr null, ptr %37, align 8
  %indvars.iv.next = add nuw nsw i64 %indvars.iv, 1
  %exitcond.not = icmp eq i64 %indvars.iv.next, 256
  br i1 %exitcond.not, label %39, label %36, !llvm.loop !11

39:                                               ; preds = %36
  tail call void @SDL_QuitEventWatchList(ptr noundef nonnull @SDL_event_watchers) #8
  tail call void @SDL_QuitWindowEventWatch() #8
  %40 = load ptr, ptr @SDL_EventQ, align 8
  %.not25 = icmp eq ptr %40, null
  br i1 %.not25, label %.thread, label %41

.thread:                                          ; preds = %39
  tail call void @SDL_UnlockMutex_REAL(ptr noundef null) #8
  br label %42

41:                                               ; preds = %39
  store ptr null, ptr @SDL_EventQ, align 8
  tail call void @SDL_UnlockMutex_REAL(ptr noundef nonnull %40) #8
  tail call void @SDL_DestroyMutex_REAL(ptr noundef nonnull %40) #8
  br label %42

42:                                               ; preds = %.thread, %41
  ret void
}